(dp0
S''
p1
(lp2
S'http://status.twitter.com/post/22461580252/twitter-site-'
p3
aS'http://srdash.tumblr.com/post/22435934198/steampun'
p4
aS'http://samuraibeebop.tumblr.com/like : links = http://srdash.tumblr.com/post/22435934198/steampun'
p5
aS'http://29.media.tumblr.com/tumblr_m3jiwsP21Y1r9lqwdo1_1280.jp : links = http://srdash.tumblr.com/post/22435934198/steampun'
p6
aS'http://finallyarrived.tumblr.com : links = http://srdash.tumblr.com/post/22435934198/steampun'
p7
aS'http://wolflog.tumblr.com : links = http://srdash.tumblr.com/post/22435934198/steampun'
p8
aS'http://crazyninjabandkid.tumblr.com : links = http://srdash.tumblr.com/post/22435934198/steampun'
p9
aS'http://mydarkmood.tumblr.com : links = http://srdash.tumblr.com/post/22435934198/steampun'
p10
aS'http://jackjsand.tumblr.com : links = http://srdash.tumblr.com/post/22435934198/steampun'
p11
aS'http://ferhoodleklaine.tumblr.com/like : links = http://srdash.tumblr.com/post/22435934198/steampun'
p12
aS'http://17yearsinthecloset.tumblr.com/an : links = http://srdash.tumblr.com/post/22435934198/steampun'
p13
aS'http://twitter.com/shar : links = http://status.twitter.com/post/22461580252/twitter-site-'
p14
aS'http://www.twitter.com/srdas : links = http://srdash.tumblr.com/post/22435934198/steampun'
p15
aS'http://veinskies.tumblr.com : links = http://srdash.tumblr.com/post/22435934198/steampun'
p16
aS'http://needsmorehipster.tumblr.com/like : links = http://srdash.tumblr.com/post/22435934198/steampun'
p17
aS'http://smile-yur-gorgeous.tumblr.com : links = http://srdash.tumblr.com/post/22435934198/steampun'
p18
aS'http://qutube.tumblr.com : links = http://srdash.tumblr.com/post/22435934198/steampun'
p19
aS'https: : links = http://srdash.tumblr.com/post/22435934198/steampun'
p20
aS'http://ferhoodleklaine.tumblr.com/post/2246258180 : links = http://srdash.tumblr.com/post/22435934198/steampun'
p21
aS'http://kurtaveclarcenciel.tumblr.com : links = http://srdash.tumblr.com/post/22435934198/steampun'
p22
aS'http://topherchris.com/post/22451801076/im-proud-to-annouce-the-launch-of-shit-panelist : links = http://srdash.tumblr.com/post/22435934198/steampun'
p23
aS'http://drucatic.tumblr.com : links = http://srdash.tumblr.com/post/22435934198/steampun'
p24
aS'http://perzeve.tumblr.com/like : links = http://srdash.tumblr.com/post/22435934198/steampun'
p25
aS'http://twitter.com/hom : links = http://twitter.com/'
p26
aS'http://jackjsand.tumblr.com/like : links = http://srdash.tumblr.com/post/22435934198/steampun'
p27
aS'https://www.tumblr.com/login\\u201d\\x0ai : links = http://status.twitter.com/post/22461580252/twitter-site-'
p28
aS'http://victimofinsecurities.tumblr.com : links = http://srdash.tumblr.com/post/22435934198/steampun'
p29
aS'http://medicenfrida.tumblr.com/post/2246198917 : links = http://srdash.tumblr.com/post/22435934198/steampun'
p30
aS'http://support.twitter.com : links = http://status.twitter.com/post/22461580252/twitter-site-'
p31
aS'http://srdash.tumblr.com/tagged/DI : links = http://srdash.tumblr.com/post/22435934198/steampun'
p32
aS'http://liveratherthanexist.tumblr.com/like : links = http://srdash.tumblr.com/post/22435934198/steampun'
p33
aS'http://dontcallmecliff.tumblr.com/like : links = http://srdash.tumblr.com/post/22435934198/steampun'
p34
aS'http://snowlily3.tumblr.com/like : links = http://srdash.tumblr.com/post/22435934198/steampun'
p35
aS'http://ferhoodleklaine.tumblr.com/an : links = http://srdash.tumblr.com/post/22435934198/steampun'
p36
aS'http://mixiekins.tumblr.com/an : links = http://srdash.tumblr.com/post/22435934198/steampun'
p37
aS'http://brynalyn.tumblr.com/like : links = http://srdash.tumblr.com/post/22435934198/steampun'
p38
aS'http://twitter.com/'
p39
aS'http://ianvanstaeyen.tumblr.com/like : links = http://srdash.tumblr.com/post/22435934198/steampun'
p40
aS'http://concreteone.tumblr.com/like : links = http://srdash.tumblr.com/post/22435934198/steampun'
p41
aS'http://nicereminders.tumblr.com/like : links = http://srdash.tumblr.com/post/22435934198/steampun'
p42
aS'http://befriande.tumblr.com/like : links = http://srdash.tumblr.com/post/22435934198/steampun'
p43
aS'http://twitter.comservice : links = http://status.twitter.com/post/22461580252/twitter-site-'
p44
aS'http://17yearsinthecloset.tumblr.com/post/22460182731like : links = http://srdash.tumblr.com/post/22435934198/steampun'
p45
aS'http://justbeingseriouslysocial.com/ : links = http://srdash.tumblr.com/post/22435934198/steampun'
p46
aS'http://carelesswhispers.tumblr.com : links = http://srdash.tumblr.com/post/22435934198/steampun'
p47
aS'http://dvice.com/archives/2011/07/steampunk-mac-h.ph : links = http://srdash.tumblr.com/post/22435934198/steampun'
p48
aS"http://www' : links = http://srdash.tumblr.com/post/22435934198/steampun"
p49
aS'http://3fromdesire.tumblr.com/like : links = http://srdash.tumblr.com/post/22435934198/steampun'
p50
aS'http://circuitzombie.tumblr.com : links = http://srdash.tumblr.com/post/22435934198/steampun'
p51
aS'http://romanrafael.tumblr.com : links = http://srdash.tumblr.com/post/22435934198/steampun'
p52
aS'http://fuckingtesla.tumblr.com/like : links = http://srdash.tumblr.com/post/22435934198/steampun'
p53
aS'http://shredyourfuckingfaceoff.tumblr.com/like : links = http://srdash.tumblr.com/post/22435934198/steampun'
p54
aS'http://mixiekins.tumblr.com/post/22462974247like : links = http://srdash.tumblr.com/post/22435934198/steampun'
p55
aS'http://wolflog.tumblr.com/like : links = http://srdash.tumblr.com/post/22435934198/steampun'
p56
aS'http://lucyquinnfabray-berry.tumblr.com : links = http://srdash.tumblr.com/post/22435934198/steampun'
p57
aS'http://circuitzombie.tumblr.com/like : links = http://srdash.tumblr.com/post/22435934198/steampun'
p58
aS'http://solar-flares143.tumblr.com : links = http://srdash.tumblr.com/post/22435934198/steampun'
p59
aS'http://malarkeyo.tumblr.com : links = http://srdash.tumblr.com/post/22435934198/steampun'
p60
aS'http://omgtalkingllama.tumblr.com/like : links = http://srdash.tumblr.com/post/22435934198/steampun'
p61
aS'https://ssl : links = http://srdash.tumblr.com/post/22435934198/steampun'
p62
aS'http://fake-genius.tumblr.com : links = http://srdash.tumblr.com/post/22435934198/steampun'
p63
aS'http://abcdefgay.tumblr.com/like : links = http://srdash.tumblr.com/post/22435934198/steampun'
p64
aS'http://bit.ly/inpraiseoflife : links = http://srdash.tumblr.com/post/22435934198/steampun'
p65
aS'http://medicenfrida.tumblr.com/an : links = http://srdash.tumblr.com/post/22435934198/steampun'
p66
aS'http://fake-genius.tumblr.com/like : links = http://srdash.tumblr.com/post/22435934198/steampun'
p67
aS'http://lrds-1354.tumblr.com/like : links = http://srdash.tumblr.com/post/22435934198/steampun'
p68
aS'http://blog.twitter.com : links = http://status.twitter.com/post/22461580252/twitter-site-'
p69
aS'http://status.twitter.com/post/22461580252/twitter-site-issue3 : links = http://status.twitter.com/post/22461580252/twitter-site-'
p70
aS'http://ayteh.tumblr.com/like : links = http://srdash.tumblr.com/post/22435934198/steampun'
p71
aS'http://delilahb.tumblr.com/like : links = http://srdash.tumblr.com/post/22435934198/steampun'
p72
aS'http://apiwiki.twitter.com : links = http://status.twitter.com/post/22461580252/twitter-site-'
p73
aS'http://mixiekins.tumblr.com/like : links = http://srdash.tumblr.com/post/22435934198/steampun'
p74
aS'http://status.twitter.com/post/22461580252/twitter-site-i'
p75
aS'http://srdash.tumblr.com/post/22435934198/steampunk'
p76
aS'http://samuraibeebop.tumblr.com/like : links = http://srdash.tumblr.com/post/22435934198/steampunk'
p77
aS'http://29.media.tumblr.com/tumblr_m3jiwsP21Y1r9lqwdo1_1280.jp : links = http://srdash.tumblr.com/post/22435934198/steampunk'
p78
aS'http://finallyarrived.tumblr.com : links = http://srdash.tumblr.com/post/22435934198/steampunk'
p79
aS'http://wolflog.tumblr.com : links = http://srdash.tumblr.com/post/22435934198/steampunk'
p80
aS'http://crazyninjabandkid.tumblr.com : links = http://srdash.tumblr.com/post/22435934198/steampunk'
p81
aS'http://mydarkmood.tumblr.com : links = http://srdash.tumblr.com/post/22435934198/steampunk'
p82
aS'http://jackjsand.tumblr.com : links = http://srdash.tumblr.com/post/22435934198/steampunk'
p83
aS'http://ferhoodleklaine.tumblr.com/like : links = http://srdash.tumblr.com/post/22435934198/steampunk'
p84
aS'http://17yearsinthecloset.tumblr.com/an : links = http://srdash.tumblr.com/post/22435934198/steampunk'
p85
aS'http://twitter.com/shar : links = http://status.twitter.com/post/22461580252/twitter-site-i'
p86
aS'http://www.twitter.com/srdas : links = http://srdash.tumblr.com/post/22435934198/steampunk'
p87
aS'http://veinskies.tumblr.com : links = http://srdash.tumblr.com/post/22435934198/steampunk'
p88
aS'http://needsmorehipster.tumblr.com/like : links = http://srdash.tumblr.com/post/22435934198/steampunk'
p89
aS'http://smile-yur-gorgeous.tumblr.com : links = http://srdash.tumblr.com/post/22435934198/steampunk'
p90
aS'http://qutube.tumblr.com : links = http://srdash.tumblr.com/post/22435934198/steampunk'
p91
aS'https: : links = http://srdash.tumblr.com/post/22435934198/steampunk'
p92
aS'http://ferhoodleklaine.tumblr.com/post/2246258180 : links = http://srdash.tumblr.com/post/22435934198/steampunk'
p93
aS'http://kurtaveclarcenciel.tumblr.com : links = http://srdash.tumblr.com/post/22435934198/steampunk'
p94
aS'http://topherchris.com/post/22451801076/im-proud-to-annouce-the-launch-of-shit-panelist : links = http://srdash.tumblr.com/post/22435934198/steampunk'
p95
aS'http://drucatic.tumblr.com : links = http://srdash.tumblr.com/post/22435934198/steampunk'
p96
aS'http://perzeve.tumblr.com/like : links = http://srdash.tumblr.com/post/22435934198/steampunk'
p97
aS'http://twitter.com/hom : links = http://twitter.com/s'
p98
aS'http://jackjsand.tumblr.com/like : links = http://srdash.tumblr.com/post/22435934198/steampunk'
p99
aS'https://www.tumblr.com/login\\u201d\\x0ai : links = http://status.twitter.com/post/22461580252/twitter-site-i'
p100
aS'http://victimofinsecurities.tumblr.com : links = http://srdash.tumblr.com/post/22435934198/steampunk'
p101
aS'http://medicenfrida.tumblr.com/post/2246198917 : links = http://srdash.tumblr.com/post/22435934198/steampunk'
p102
aS'http://support.twitter.com : links = http://status.twitter.com/post/22461580252/twitter-site-i'
p103
aS'http://srdash.tumblr.com/tagged/DI : links = http://srdash.tumblr.com/post/22435934198/steampunk'
p104
aS'http://liveratherthanexist.tumblr.com/like : links = http://srdash.tumblr.com/post/22435934198/steampunk'
p105
aS'http://dontcallmecliff.tumblr.com/like : links = http://srdash.tumblr.com/post/22435934198/steampunk'
p106
aS'http://snowlily3.tumblr.com/like : links = http://srdash.tumblr.com/post/22435934198/steampunk'
p107
aS'http://ferhoodleklaine.tumblr.com/an : links = http://srdash.tumblr.com/post/22435934198/steampunk'
p108
aS'http://mixiekins.tumblr.com/an : links = http://srdash.tumblr.com/post/22435934198/steampunk'
p109
aS'http://brynalyn.tumblr.com/like : links = http://srdash.tumblr.com/post/22435934198/steampunk'
p110
aS'http://twitter.com/s'
p111
aS'http://ianvanstaeyen.tumblr.com/like : links = http://srdash.tumblr.com/post/22435934198/steampunk'
p112
aS'http://concreteone.tumblr.com/like : links = http://srdash.tumblr.com/post/22435934198/steampunk'
p113
aS'http://nicereminders.tumblr.com/like : links = http://srdash.tumblr.com/post/22435934198/steampunk'
p114
aS'http://befriande.tumblr.com/like : links = http://srdash.tumblr.com/post/22435934198/steampunk'
p115
aS'http://twitter.comservice : links = http://status.twitter.com/post/22461580252/twitter-site-i'
p116
aS'http://17yearsinthecloset.tumblr.com/post/22460182731like : links = http://srdash.tumblr.com/post/22435934198/steampunk'
p117
aS'http://justbeingseriouslysocial.com/ : links = http://srdash.tumblr.com/post/22435934198/steampunk'
p118
aS'http://carelesswhispers.tumblr.com : links = http://srdash.tumblr.com/post/22435934198/steampunk'
p119
aS'http://dvice.com/archives/2011/07/steampunk-mac-h.ph : links = http://srdash.tumblr.com/post/22435934198/steampunk'
p120
aS"http://www' : links = http://srdash.tumblr.com/post/22435934198/steampunk"
p121
aS'http://3fromdesire.tumblr.com/like : links = http://srdash.tumblr.com/post/22435934198/steampunk'
p122
aS'http://circuitzombie.tumblr.com : links = http://srdash.tumblr.com/post/22435934198/steampunk'
p123
aS'http://romanrafael.tumblr.com : links = http://srdash.tumblr.com/post/22435934198/steampunk'
p124
aS'http://fuckingtesla.tumblr.com/like : links = http://srdash.tumblr.com/post/22435934198/steampunk'
p125
aS'http://shredyourfuckingfaceoff.tumblr.com/like : links = http://srdash.tumblr.com/post/22435934198/steampunk'
p126
aS'http://mixiekins.tumblr.com/post/22462974247like : links = http://srdash.tumblr.com/post/22435934198/steampunk'
p127
aS'http://wolflog.tumblr.com/like : links = http://srdash.tumblr.com/post/22435934198/steampunk'
p128
aS'http://lucyquinnfabray-berry.tumblr.com : links = http://srdash.tumblr.com/post/22435934198/steampunk'
p129
aS'http://circuitzombie.tumblr.com/like : links = http://srdash.tumblr.com/post/22435934198/steampunk'
p130
aS'http://solar-flares143.tumblr.com : links = http://srdash.tumblr.com/post/22435934198/steampunk'
p131
aS'http://malarkeyo.tumblr.com : links = http://srdash.tumblr.com/post/22435934198/steampunk'
p132
aS'http://omgtalkingllama.tumblr.com/like : links = http://srdash.tumblr.com/post/22435934198/steampunk'
p133
aS'https://ssl : links = http://srdash.tumblr.com/post/22435934198/steampunk'
p134
aS'http://fake-genius.tumblr.com : links = http://srdash.tumblr.com/post/22435934198/steampunk'
p135
aS'http://abcdefgay.tumblr.com/like : links = http://srdash.tumblr.com/post/22435934198/steampunk'
p136
aS'http://bit.ly/inpraiseoflife : links = http://srdash.tumblr.com/post/22435934198/steampunk'
p137
aS'http://medicenfrida.tumblr.com/an : links = http://srdash.tumblr.com/post/22435934198/steampunk'
p138
aS'http://fake-genius.tumblr.com/like : links = http://srdash.tumblr.com/post/22435934198/steampunk'
p139
aS'http://lrds-1354.tumblr.com/like : links = http://srdash.tumblr.com/post/22435934198/steampunk'
p140
aS'http://blog.twitter.com : links = http://status.twitter.com/post/22461580252/twitter-site-i'
p141
aS'http://status.twitter.com/post/22461580252/twitter-site-issue3 : links = http://status.twitter.com/post/22461580252/twitter-site-i'
p142
aS'http://ayteh.tumblr.com/like : links = http://srdash.tumblr.com/post/22435934198/steampunk'
p143
aS'http://delilahb.tumblr.com/like : links = http://srdash.tumblr.com/post/22435934198/steampunk'
p144
aS'http://apiwiki.twitter.com : links = http://status.twitter.com/post/22461580252/twitter-site-i'
p145
aS'http://mixiekins.tumblr.com/like : links = http://srdash.tumblr.com/post/22435934198/steampunk'
p146
aS'http://status.twitter.com/post/22461580252/twitter-site-is'
p147
aS'http://srdash.tumblr.com/post/22435934198/steampunk-'
p148
aS'http://samuraibeebop.tumblr.com/like : links = http://srdash.tumblr.com/post/22435934198/steampunk-'
p149
aS'http://29.media.tumblr.com/tumblr_m3jiwsP21Y1r9lqwdo1_1280.jp : links = http://srdash.tumblr.com/post/22435934198/steampunk-'
p150
aS'http://finallyarrived.tumblr.com : links = http://srdash.tumblr.com/post/22435934198/steampunk-'
p151
aS'http://wolflog.tumblr.com : links = http://srdash.tumblr.com/post/22435934198/steampunk-'
p152
aS'http://crazyninjabandkid.tumblr.com : links = http://srdash.tumblr.com/post/22435934198/steampunk-'
p153
aS'http://mydarkmood.tumblr.com : links = http://srdash.tumblr.com/post/22435934198/steampunk-'
p154
aS'http://jackjsand.tumblr.com : links = http://srdash.tumblr.com/post/22435934198/steampunk-'
p155
aS'http://status.twitter.com/post/22461580252/twitter-site-iss'
p156
aS'http://srdash.tumblr.com/post/22435934198/steampunk-m'
p157
aS'http://samuraibeebop.tumblr.com/like : links = http://srdash.tumblr.com/post/22435934198/steampunk-m'
p158
aS'http://29.media.tumblr.com/tumblr_m3jiwsP21Y1r9lqwdo1_1280.jp : links = http://srdash.tumblr.com/post/22435934198/steampunk-m'
p159
aS'http://finallyarrived.tumblr.com : links = http://srdash.tumblr.com/post/22435934198/steampunk-m'
p160
aS'http://wolflog.tumblr.com : links = http://srdash.tumblr.com/post/22435934198/steampunk-m'
p161
aS'http://crazyninjabandkid.tumblr.com : links = http://srdash.tumblr.com/post/22435934198/steampunk-m'
p162
aS'http://mydarkmood.tumblr.com : links = http://srdash.tumblr.com/post/22435934198/steampunk-m'
p163
aS'http://jackjsand.tumblr.com : links = http://srdash.tumblr.com/post/22435934198/steampunk-m'
p164
aS'http://ferhoodleklaine.tumblr.com/like : links = http://srdash.tumblr.com/post/22435934198/steampunk-m'
p165
aS'http://17yearsinthecloset.tumblr.com/an : links = http://srdash.tumblr.com/post/22435934198/steampunk-m'
p166
aS'http://twitter.com/shar : links = http://status.twitter.com/post/22461580252/twitter-site-iss'
p167
aS'http://www.twitter.com/srdas : links = http://srdash.tumblr.com/post/22435934198/steampunk-m'
p168
aS'http://veinskies.tumblr.com : links = http://srdash.tumblr.com/post/22435934198/steampunk-m'
p169
aS'http://needsmorehipster.tumblr.com/like : links = http://srdash.tumblr.com/post/22435934198/steampunk-m'
p170
aS'http://smile-yur-gorgeous.tumblr.com : links = http://srdash.tumblr.com/post/22435934198/steampunk-m'
p171
aS'http://qutube.tumblr.com : links = http://srdash.tumblr.com/post/22435934198/steampunk-m'
p172
aS'https: : links = http://srdash.tumblr.com/post/22435934198/steampunk-m'
p173
aS'http://ferhoodleklaine.tumblr.com/post/2246258180 : links = http://srdash.tumblr.com/post/22435934198/steampunk-m'
p174
aS'http://kurtaveclarcenciel.tumblr.com : links = http://srdash.tumblr.com/post/22435934198/steampunk-m'
p175
aS'http://topherchris.com/post/22451801076/im-proud-to-annouce-the-launch-of-shit-panelist : links = http://srdash.tumblr.com/post/22435934198/steampunk-m'
p176
aS'http://drucatic.tumblr.com : links = http://srdash.tumblr.com/post/22435934198/steampunk-m'
p177
aS'http://perzeve.tumblr.com/like : links = http://srdash.tumblr.com/post/22435934198/steampunk-m'
p178
aS'http://twitter.com/hom : links = http://twitter.com/sha'
p179
aS'http://jackjsand.tumblr.com/like : links = http://srdash.tumblr.com/post/22435934198/steampunk-m'
p180
aS'https://www.tumblr.com/login\\u201d\\x0ai : links = http://status.twitter.com/post/22461580252/twitter-site-iss'
p181
aS'http://victimofinsecurities.tumblr.com : links = http://srdash.tumblr.com/post/22435934198/steampunk-m'
p182
aS'http://medicenfrida.tumblr.com/post/2246198917 : links = http://srdash.tumblr.com/post/22435934198/steampunk-m'
p183
aS'http://support.twitter.com : links = http://status.twitter.com/post/22461580252/twitter-site-iss'
p184
aS'http://srdash.tumblr.com/tagged/DI : links = http://srdash.tumblr.com/post/22435934198/steampunk-m'
p185
aS'http://liveratherthanexist.tumblr.com/like : links = http://srdash.tumblr.com/post/22435934198/steampunk-m'
p186
aS'http://dontcallmecliff.tumblr.com/like : links = http://srdash.tumblr.com/post/22435934198/steampunk-m'
p187
aS'http://snowlily3.tumblr.com/like : links = http://srdash.tumblr.com/post/22435934198/steampunk-m'
p188
aS'http://ferhoodleklaine.tumblr.com/an : links = http://srdash.tumblr.com/post/22435934198/steampunk-m'
p189
aS'http://mixiekins.tumblr.com/an : links = http://srdash.tumblr.com/post/22435934198/steampunk-m'
p190
aS'http://brynalyn.tumblr.com/like : links = http://srdash.tumblr.com/post/22435934198/steampunk-m'
p191
aS'http://twitter.com/sha'
p192
aS'http://ianvanstaeyen.tumblr.com/like : links = http://srdash.tumblr.com/post/22435934198/steampunk-m'
p193
aS'http://concreteone.tumblr.com/like : links = http://srdash.tumblr.com/post/22435934198/steampunk-m'
p194
aS'http://nicereminders.tumblr.com/like : links = http://srdash.tumblr.com/post/22435934198/steampunk-m'
p195
aS'http://befriande.tumblr.com/like : links = http://srdash.tumblr.com/post/22435934198/steampunk-m'
p196
aS'http://twitter.comservice : links = http://status.twitter.com/post/22461580252/twitter-site-iss'
p197
aS'http://17yearsinthecloset.tumblr.com/post/22460182731like : links = http://srdash.tumblr.com/post/22435934198/steampunk-m'
p198
aS'http://justbeingseriouslysocial.com/ : links = http://srdash.tumblr.com/post/22435934198/steampunk-m'
p199
aS'http://carelesswhispers.tumblr.com : links = http://srdash.tumblr.com/post/22435934198/steampunk-m'
p200
aS'http://dvice.com/archives/2011/07/steampunk-mac-h.ph : links = http://srdash.tumblr.com/post/22435934198/steampunk-m'
p201
aS"http://www' : links = http://srdash.tumblr.com/post/22435934198/steampunk-m"
p202
aS'http://3fromdesire.tumblr.com/like : links = http://srdash.tumblr.com/post/22435934198/steampunk-m'
p203
aS'http://circuitzombie.tumblr.com : links = http://srdash.tumblr.com/post/22435934198/steampunk-m'
p204
aS'http://romanrafael.tumblr.com : links = http://srdash.tumblr.com/post/22435934198/steampunk-m'
p205
aS'http://fuckingtesla.tumblr.com/like : links = http://srdash.tumblr.com/post/22435934198/steampunk-m'
p206
aS'http://shredyourfuckingfaceoff.tumblr.com/like : links = http://srdash.tumblr.com/post/22435934198/steampunk-m'
p207
aS'http://mixiekins.tumblr.com/post/22462974247like : links = http://srdash.tumblr.com/post/22435934198/steampunk-m'
p208
aS'http://wolflog.tumblr.com/like : links = http://srdash.tumblr.com/post/22435934198/steampunk-m'
p209
aS'http://lucyquinnfabray-berry.tumblr.com : links = http://srdash.tumblr.com/post/22435934198/steampunk-m'
p210
aS'http://circuitzombie.tumblr.com/like : links = http://srdash.tumblr.com/post/22435934198/steampunk-m'
p211
aS'http://solar-flares143.tumblr.com : links = http://srdash.tumblr.com/post/22435934198/steampunk-m'
p212
aS'http://malarkeyo.tumblr.com : links = http://srdash.tumblr.com/post/22435934198/steampunk-m'
p213
aS'http://omgtalkingllama.tumblr.com/like : links = http://srdash.tumblr.com/post/22435934198/steampunk-m'
p214
aS'https://ssl : links = http://srdash.tumblr.com/post/22435934198/steampunk-m'
p215
aS'http://fake-genius.tumblr.com : links = http://srdash.tumblr.com/post/22435934198/steampunk-m'
p216
aS'http://abcdefgay.tumblr.com/like : links = http://srdash.tumblr.com/post/22435934198/steampunk-m'
p217
aS'http://bit.ly/inpraiseoflife : links = http://srdash.tumblr.com/post/22435934198/steampunk-m'
p218
aS'http://medicenfrida.tumblr.com/an : links = http://srdash.tumblr.com/post/22435934198/steampunk-m'
p219
aS'http://fake-genius.tumblr.com/like : links = http://srdash.tumblr.com/post/22435934198/steampunk-m'
p220
aS'http://lrds-1354.tumblr.com/like : links = http://srdash.tumblr.com/post/22435934198/steampunk-m'
p221
aS'http://blog.twitter.com : links = http://status.twitter.com/post/22461580252/twitter-site-iss'
p222
aS'http://status.twitter.com/post/22461580252/twitter-site-issue3 : links = http://status.twitter.com/post/22461580252/twitter-site-iss'
p223
aS'http://ayteh.tumblr.com/like : links = http://srdash.tumblr.com/post/22435934198/steampunk-m'
p224
aS'http://delilahb.tumblr.com/like : links = http://srdash.tumblr.com/post/22435934198/steampunk-m'
p225
aS'http://apiwiki.twitter.com : links = http://status.twitter.com/post/22461580252/twitter-site-iss'
p226
aS'http://mixiekins.tumblr.com/like : links = http://srdash.tumblr.com/post/22435934198/steampunk-m'
p227
aS'http://status.twitter.com/post/22461580252/twitter-site-issu'
p228
aS'http://srdash.tumblr.com/post/22435934198/steampunk-ma'
p229
asS'div#credi'
p230
(lp231
S'http://status.twitter.com/post/22461580252/twitter-site-issu'
p232
asS'notesLoading..'
p233
(lp234
S'http://srdash.tumblr.com/post/22435934198/steampunk-ma'
p235
asS'border-bottom-color:#f55b2c'
p236
(lp237
S'http://srdash.tumblr.com/post/22435934198/steampunk-ma'
p238
asS'http://samuraibeebop.tumblr.com/like'
p239
(lp240
S'http://srdash.tumblr.com/post/22435934198/steampunk-ma'
p241
asS'i(function('
p242
(lp243
S'http://status.twitter.com/post/22461580252/twitter-site-issu'
p244
aS'http://srdash.tumblr.com/post/22435934198/steampunk-ma'
p245
asS'issues'
p246
(lp247
S'http://status.twitter.com/post/22461580252/twitter-site-issu'
p248
asS"notes_html=tumblrReq.responseText.split('')[1].split('')[0]"
p249
(lp250
S'http://srdash.tumblr.com/post/22435934198/steampunk-ma'
p251
asS'Bold'
p252
(lp253
S'http://status.twitter.com/post/22461580252/twitter-site-issu'
p254
asS's.parentNode.insertBefore(g'
p255
(lp256
S'http://srdash.tumblr.com/post/22435934198/steampunk-ma'
p257
asS"_gaq.push(['_setAccount"
p258
(lp259
S'http://srdash.tumblr.com/post/22435934198/steampunk-ma'
p260
asS"'srdash'"
p261
(lp262
S'http://srdash.tumblr.com/post/22435934198/steampunk-ma'
p263
asS'Stev'
p264
(lp265
S'http://srdash.tumblr.com/post/22435934198/steampunk-ma'
p266
asS'aut'
p267
(lp268
S'http://status.twitter.com/post/22461580252/twitter-site-issu'
p269
asS'25px'
p270
(lp271
S'http://status.twitter.com/post/22461580252/twitter-site-issu'
p272
asS'http://29.media.tumblr.com/tumblr_m3jiwsP21Y1r9lqwdo1_1280.jp'
p273
(lp274
S'http://srdash.tumblr.com/post/22435934198/steampunk-ma'
p275
asS'if(window.XMLHttpRequest)va'
p276
(lp277
S'http://srdash.tumblr.com/post/22435934198/steampunk-ma'
p278
asS'http://finallyarrived.tumblr.com'
p279
(lp280
S'http://srdash.tumblr.com/post/22435934198/steampunk-ma'
p281
asS'-1px'
p282
(lp283
S'http://status.twitter.com/post/22461580252/twitter-site-issu'
p284
asS'36px'
p285
(lp286
S'http://status.twitter.com/post/22461580252/twitter-site-issu'
p287
asS'http://wolflog.tumblr.com'
p288
(lp289
S'http://srdash.tumblr.com/post/22435934198/steampunk-ma'
p290
asS'fixedBa'
p291
(lp292
S'http://srdash.tumblr.com/post/22435934198/steampunk-ma'
p293
asS'fak'
p294
(lp295
S'http://status.twitter.com/post/22461580252/twitter-site-issu'
p296
aS'http://srdash.tumblr.com/post/22435934198/steampunk-ma'
p297
asS'1px'
p298
(lp299
S'http://status.twitter.com/post/22461580252/twitter-site-issu'
p300
asS'list-style-type'
p301
(lp302
S'http://status.twitter.com/post/22461580252/twitter-site-issu'
p303
asS'minute'
p304
(lp305
S'http://status.twitter.com/post/22461580252/twitter-site-issu'
p306
asS'retur'
p307
(lp308
S'http://status.twitter.com/post/22461580252/twitter-site-issu'
p309
aS'http://srdash.tumblr.com/post/22435934198/steampunk-ma'
p310
asS'420px'
p311
(lp312
S'http://status.twitter.com/post/22461580252/twitter-site-issu'
p313
asS'http://crazyninjabandkid.tumblr.com'
p314
(lp315
S'http://srdash.tumblr.com/post/22435934198/steampunk-ma'
p316
asS'blockquot'
p317
(lp318
S'http://status.twitter.com/post/22461580252/twitter-site-issu'
p319
asS'Georgi'
p320
(lp321
S'http://status.twitter.com/post/22461580252/twitter-site-issu'
p322
asS'34p'
p323
(lp324
S'http://status.twitter.com/post/22461580252/twitter-site-issu'
p325
asS'guy'
p326
(lp327
S'http://status.twitter.com/post/22461580252/twitter-site-issu'
p328
aS'http://srdash.tumblr.com/post/22435934198/steampunk-ma'
p329
asS'padding-left'
p330
(lp331
S'http://status.twitter.com/post/22461580252/twitter-site-issu'
p332
asS'Statu'
p333
(lp334
S'http://status.twitter.com/post/22461580252/twitter-site-issu'
p335
asS'ente'
p336
(lp337
S'http://status.twitter.com/post/22461580252/twitter-site-issu'
p338
aS'http://srdash.tumblr.com/post/22435934198/steampunk-ma'
p339
asS'.blog-titl'
p340
(lp341
S'http://srdash.tumblr.com/post/22435934198/steampunk-ma'
p342
asS"'text/javascript'"
p343
(lp344
S'http://srdash.tumblr.com/post/22435934198/steampunk-ma'
p345
asS'ga.typ'
p346
(lp347
S'http://srdash.tumblr.com/post/22435934198/steampunk-ma'
p348
asS'10p'
p349
(lp350
S'http://status.twitter.com/post/22461580252/twitter-site-issu'
p351
asS'http://mydarkmood.tumblr.com'
p352
(lp353
S'http://srdash.tumblr.com/post/22435934198/steampunk-ma'
p354
asS'ba'
p355
(lp356
S'http://status.twitter.com/post/22461580252/twitter-site-issu'
p357
aS'http://srdash.tumblr.com/post/22435934198/steampunk-ma'
p358
asS'#888'
p359
(lp360
S'http://status.twitter.com/post/22461580252/twitter-site-issu'
p361
asS'http://jackjsand.tumblr.com'
p362
(lp363
S'http://srdash.tumblr.com/post/22435934198/steampunk-ma'
p364
asS'Link'
p365
(lp366
S'http://status.twitter.com/post/22461580252/twitter-site-issu'
p367
asS'sur'
p368
(lp369
S'http://status.twitter.com/post/22461580252/twitter-site-issu'
p370
aS'http://srdash.tumblr.com/post/22435934198/steampunk-ma'
p371
asS't.valu'
p372
(lp373
S'http://status.twitter.com/post/22461580252/twitter-site-issu'
p374
aS'http://srdash.tumblr.com/post/22435934198/steampunk-ma'
p375
asS'Photograph'
p376
(lp377
S'http://srdash.tumblr.com/post/22435934198/steampunk-ma'
p378
asS'Ma'
p379
(lp380
S'http://status.twitter.com/post/22461580252/twitter-site-issu'
p381
aS'http://srdash.tumblr.com/post/22435934198/steampunk-ma'
p382
asS'overhau'
p383
(lp384
S'http://srdash.tumblr.com/post/22435934198/steampunk-ma'
p385
asS'#555'
p386
(lp387
S'http://status.twitter.com/post/22461580252/twitter-site-issu'
p388
asS'#e8e8e8'
p389
(lp390
S'http://status.twitter.com/post/22461580252/twitter-site-issu'
p391
asS'http://ferhoodleklaine.tumblr.com/like'
p392
(lp393
S'http://srdash.tumblr.com/post/22435934198/steampunk-ma'
p394
asS'span.labe'
p395
(lp396
S'http://status.twitter.com/post/22461580252/twitter-site-issu'
p397
asS'sans-serif;'
p398
(lp399
S'http://srdash.tumblr.com/post/22435934198/steampunk-ma'
p400
asS'absolutel'
p401
(lp402
S'http://status.twitter.com/post/22461580252/twitter-site-issu'
p403
aS'http://srdash.tumblr.com/post/22435934198/steampunk-ma'
p404
asS'(t.typ'
p405
(lp406
S'http://status.twitter.com/post/22461580252/twitter-site-issu'
p407
aS'http://srdash.tumblr.com/post/22435934198/steampunk-ma'
p408
asS"d.addEventListener('keypress"
p409
(lp410
S'http://status.twitter.com/post/22461580252/twitter-site-issu'
p411
aS'http://srdash.tumblr.com/post/22435934198/steampunk-ma'
p412
asS'18px'
p413
(lp414
S'http://status.twitter.com/post/22461580252/twitter-site-issu'
p415
asS'Neve'
p416
(lp417
S'http://status.twitter.com/post/22461580252/twitter-site-issu'
p418
aS'http://srdash.tumblr.com/post/22435934198/steampunk-ma'
p419
asS'http://17yearsinthecloset.tumblr.com/an'
p420
(lp421
S'http://srdash.tumblr.com/post/22435934198/steampunk-ma'
p422
asS'div#conten'
p423
(lp424
S'http://status.twitter.com/post/22461580252/twitter-site-issu'
p425
asS'MS'
p426
(lp427
S'http://status.twitter.com/post/22461580252/twitter-site-issu'
p428
asS'twitterUsernam'
p429
(lp430
S'http://srdash.tumblr.com/post/22435934198/steampunk-ma'
p431
asS'#sideba'
p432
(lp433
S'http://srdash.tumblr.com/post/22435934198/steampunk-ma'
p434
asS'va'
p435
(lp436
S'http://status.twitter.com/post/22461580252/twitter-site-issu'
p437
aS'http://srdash.tumblr.com/post/22435934198/steampunk-ma'
p438
asS'.corner'
p439
(lp440
S'http://srdash.tumblr.com/post/22435934198/steampunk-ma'
p441
asS'pulle'
p442
(lp443
S'http://srdash.tumblr.com/post/22435934198/steampunk-ma'
p444
asS'#notes-toggle:hove'
p445
(lp446
S'http://srdash.tumblr.com/post/22435934198/steampunk-ma'
p447
asS'nowrap'
p448
(lp449
S'http://status.twitter.com/post/22461580252/twitter-site-issu'
p450
asS'well-don'
p451
(lp452
S'http://srdash.tumblr.com/post/22435934198/steampunk-ma'
p453
asS'use'
p454
(lp455
S'http://srdash.tumblr.com/post/22435934198/steampunk-ma'
p456
asS'div.lin'
p457
(lp458
S'http://status.twitter.com/post/22461580252/twitter-site-issu'
p459
asS'http://twitter.com/shar'
p460
(lp461
S'http://status.twitter.com/post/22461580252/twitter-site-issu'
p462
aS'http://srdash.tumblr.com/post/22435934198/steampunk-ma'
p463
asS'#paginatio'
p464
(lp465
S'http://srdash.tumblr.com/post/22435934198/steampunk-ma'
p466
asS'href="#'
p467
(lp468
S'http://srdash.tumblr.com/post/22435934198/steampunk-ma'
p469
asS'http://www.twitter.com/srdas'
p470
(lp471
S'http://srdash.tumblr.com/post/22435934198/steampunk-ma'
p472
asS'Lin'
p473
(lp474
S'http://status.twitter.com/post/22461580252/twitter-site-issu'
p475
asS'http://veinskies.tumblr.com'
p476
(lp477
S'http://srdash.tumblr.com/post/22435934198/steampunk-ma'
p478
asS'_ga'
p479
(lp480
S'http://srdash.tumblr.com/post/22435934198/steampunk-ma'
p481
asS'http://needsmorehipster.tumblr.com/like'
p482
(lp483
S'http://srdash.tumblr.com/post/22435934198/steampunk-ma'
p484
asS'it'
p485
(lp486
S'http://srdash.tumblr.com/post/22435934198/steampunk-ma'
p487
asS'Issuebod'
p488
(lp489
S'http://status.twitter.com/post/22461580252/twitter-site-issu'
p490
asS'.colored-pane'
p491
(lp492
S'http://srdash.tumblr.com/post/22435934198/steampunk-ma'
p493
asS'Sa'
p494
(lp495
S'http://status.twitter.com/post/22461580252/twitter-site-issu'
p496
asS'Se'
p497
(lp498
S'http://srdash.tumblr.com/post/22435934198/steampunk-ma'
p499
asS'.more-likes:hove'
p500
(lp501
S'http://srdash.tumblr.com/post/22435934198/steampunk-ma'
p502
asS'none'
p503
(lp504
S'http://status.twitter.com/post/22461580252/twitter-site-issu'
p505
asS'17px'
p506
(lp507
S'http://status.twitter.com/post/22461580252/twitter-site-issu'
p508
asS'font-family:Georgi'
p509
(lp510
S'http://srdash.tumblr.com/post/22435934198/steampunk-ma'
p511
asS'e.srcElement'
p512
(lp513
S'http://status.twitter.com/post/22461580252/twitter-site-issu'
p514
aS'http://srdash.tumblr.com/post/22435934198/steampunk-ma'
p515
asS'http://smile-yur-gorgeous.tumblr.com'
p516
(lp517
S'http://srdash.tumblr.com/post/22435934198/steampunk-ma'
p518
asS'http://qutube.tumblr.com'
p519
(lp520
S'http://srdash.tumblr.com/post/22435934198/steampunk-ma'
p521
asS"('https:"
p522
(lp523
S'http://srdash.tumblr.com/post/22435934198/steampunk-ma'
p524
asS'#0a0'
p525
(lp526
S'http://status.twitter.com/post/22461580252/twitter-site-issu'
p527
asS'Previous&bull;Nex'
p528
(lp529
S'http://srdash.tumblr.com/post/22435934198/steampunk-ma'
p530
asS'buil'
p531
(lp532
S'http://srdash.tumblr.com/post/22435934198/steampunk-ma'
p533
asS'ol.note'
p534
(lp535
S'http://srdash.tumblr.com/post/22435934198/steampunk-ma'
p536
asS'font-style'
p537
(lp538
S'http://status.twitter.com/post/22461580252/twitter-site-issu'
p539
asS'absolute'
p540
(lp541
S'http://status.twitter.com/post/22461580252/twitter-site-issu'
p542
asS'false;tumblrReq.onreadystatechange=function(){if(tumblrReq.readyState==4){va'
p543
(lp544
S'http://srdash.tumblr.com/post/22435934198/steampunk-ma'
p545
asS'.like_lin'
p546
(lp547
S'http://srdash.tumblr.com/post/22435934198/steampunk-ma'
p548
asS'sit'
p549
(lp550
S'http://status.twitter.com/post/22461580252/twitter-site-issu'
p551
asS'span.user_'
p552
(lp553
S'http://status.twitter.com/post/22461580252/twitter-site-issu'
p554
asS's)'
p555
(lp556
S'http://srdash.tumblr.com/post/22435934198/steampunk-ma'
p557
asS'#777'
p558
(lp559
S'http://status.twitter.com/post/22461580252/twitter-site-issu'
p560
asS'typewriter'
p561
(lp562
S'http://srdash.tumblr.com/post/22435934198/steampunk-ma'
p563
asS'#fff'
p564
(lp565
S'http://status.twitter.com/post/22461580252/twitter-site-issu'
p566
asS'La...tumblrUsernam'
p567
(lp568
S'http://srdash.tumblr.com/post/22435934198/steampunk-ma'
p569
asS'50px'
p570
(lp571
S'http://status.twitter.com/post/22461580252/twitter-site-issu'
p572
asS'http://ferhoodleklaine.tumblr.com/post/2246258180'
p573
(lp574
S'http://srdash.tumblr.com/post/22435934198/steampunk-ma'
p575
asS'55p'
p576
(lp577
S'http://status.twitter.com/post/22461580252/twitter-site-issu'
p578
asS'http://kurtaveclarcenciel.tumblr.com'
p579
(lp580
S'http://srdash.tumblr.com/post/22435934198/steampunk-ma'
p581
asS'div.post:hove'
p582
(lp583
S'http://status.twitter.com/post/22461580252/twitter-site-issu'
p584
asS'passwords.\\x0a\\x0aTumbl'
p585
(lp586
S'http://status.twitter.com/post/22461580252/twitter-site-issu'
p587
aS'http://srdash.tumblr.com/post/22435934198/steampunk-ma'
p588
asS'http://topherchris.com/post/22451801076/im-proud-to-annouce-the-launch-of-shit-panelist'
p589
(lp590
S'http://srdash.tumblr.com/post/22435934198/steampunk-ma'
p591
asS'li.eve'
p592
(lp593
S'http://status.twitter.com/post/22461580252/twitter-site-issu'
p594
asS'http://drucatic.tumblr.com'
p595
(lp596
S'http://srdash.tumblr.com/post/22435934198/steampunk-ma'
p597
asS'-170px'
p598
(lp599
S'http://status.twitter.com/post/22461580252/twitter-site-issu'
p600
asS'text-decoration'
p601
(lp602
S'http://status.twitter.com/post/22461580252/twitter-site-issu'
p603
asS'tumblrReq=ne'
p604
(lp605
S'http://srdash.tumblr.com/post/22435934198/steampunk-ma'
p606
asS'inline'
p607
(lp608
S'http://status.twitter.com/post/22461580252/twitter-site-issu'
p609
asS'})();'
p610
(lp611
S'http://srdash.tumblr.com/post/22435934198/steampunk-ma'
p612
asS'li.tumblelog_srdas'
p613
(lp614
S'http://srdash.tumblr.com/post/22435934198/steampunk-ma'
p615
asS'http://perzeve.tumblr.com/like'
p616
(lp617
S'http://srdash.tumblr.com/post/22435934198/steampunk-ma'
p618
asS'#pag'
p619
(lp620
S'http://srdash.tumblr.com/post/22435934198/steampunk-ma'
p621
asS"'Lucid"
p622
(lp623
S'http://status.twitter.com/post/22461580252/twitter-site-issu'
p624
asS'addres'
p625
(lp626
S'http://status.twitter.com/post/22461580252/twitter-site-issu'
p627
aS'http://srdash.tumblr.com/post/22435934198/steampunk-ma'
p628
asS'lo'
p629
(lp630
S'http://status.twitter.com/post/22461580252/twitter-site-issu'
p631
aS'http://srdash.tumblr.com/post/22435934198/steampunk-ma'
p632
asS'background-color:#f55b2c'
p633
(lp634
S'http://srdash.tumblr.com/post/22435934198/steampunk-ma'
p635
asS'div.sourc'
p636
(lp637
S'http://status.twitter.com/post/22461580252/twitter-site-issu'
p638
asS'hidden'
p639
(lp640
S'http://status.twitter.com/post/22461580252/twitter-site-issu'
p641
asS'<'
p642
(lp643
S'http://srdash.tumblr.com/post/22435934198/steampunk-ma'
p644
asS'li:befor'
p645
(lp646
S'http://srdash.tumblr.com/post/22435934198/steampunk-ma'
p647
asS'http://twitter.com/hom'
p648
(lp649
S'http://twitter.com/shar'
p650
asS'auto'
p651
(lp652
S'http://status.twitter.com/post/22461580252/twitter-site-issu'
p653
aS'http://srdash.tumblr.com/post/22435934198/steampunk-ma'
p654
asS'div.vide'
p655
(lp656
S'http://status.twitter.com/post/22461580252/twitter-site-issu'
p657
asS'L'
p658
(lp659
S'http://srdash.tumblr.com/post/22435934198/steampunk-ma'
p660
asS'span.lon'
p661
(lp662
S'http://status.twitter.com/post/22461580252/twitter-site-issu'
p663
asS'http://jackjsand.tumblr.com/like'
p664
(lp665
S'http://srdash.tumblr.com/post/22435934198/steampunk-ma'
p666
asS'13p'
p667
(lp668
S'http://status.twitter.com/post/22461580252/twitter-site-issu'
p669
asS'Foote'
p670
(lp671
S'http://status.twitter.com/post/22461580252/twitter-site-issu'
p672
asS'div.date_bric'
p673
(lp674
S'http://status.twitter.com/post/22461580252/twitter-site-issu'
p675
asS"document.createElement('script')"
p676
(lp677
S'http://srdash.tumblr.com/post/22435934198/steampunk-ma'
p678
asS'}va'
p679
(lp680
S'http://srdash.tumblr.com/post/22435934198/steampunk-ma'
p681
asS'2p'
p682
(lp683
S'http://status.twitter.com/post/22461580252/twitter-site-issu'
p684
asS'\\u201chttps://www.tumblr.com/login\\u201d\\x0ai'
p685
(lp686
S'http://status.twitter.com/post/22461580252/twitter-site-issu'
p687
aS'http://srdash.tumblr.com/post/22435934198/steampunk-ma'
p688
asS'Ricci'
p689
(lp690
S'http://srdash.tumblr.com/post/22435934198/steampunk-ma'
p691
asS'India'
p692
(lp693
S'http://srdash.tumblr.com/post/22435934198/steampunk-ma'
p694
asS'l'
p695
(lp696
S'http://status.twitter.com/post/22461580252/twitter-site-issu'
p697
asS'color:#616566'
p698
(lp699
S'http://srdash.tumblr.com/post/22435934198/steampunk-ma'
p700
asS'40p'
p701
(lp702
S'http://status.twitter.com/post/22461580252/twitter-site-issu'
p703
asS'text-transform'
p704
(lp705
S'http://status.twitter.com/post/22461580252/twitter-site-issu'
p706
asS'|'
p707
(lp708
S'http://status.twitter.com/post/22461580252/twitter-site-issu'
p709
aS'http://srdash.tumblr.com/post/22435934198/steampunk-ma'
p710
asS'font-size'
p711
(lp712
S'http://status.twitter.com/post/22461580252/twitter-site-issu'
p713
asS'http://victimofinsecurities.tumblr.com'
p714
(lp715
S'http://srdash.tumblr.com/post/22435934198/steampunk-ma'
p716
asS"'.google-analytics.com/ga.js'"
p717
(lp718
S'http://srdash.tumblr.com/post/22435934198/steampunk-ma'
p719
asS'700'
p720
(lp721
S'http://srdash.tumblr.com/post/22435934198/steampunk-ma'
p722
asS'border-color:#f55b2c'
p723
(lp724
S'http://srdash.tumblr.com/post/22435934198/steampunk-ma'
p725
asS'Helvetic'
p726
(lp727
S'http://status.twitter.com/post/22461580252/twitter-site-issu'
p728
asS'padding-top'
p729
(lp730
S'http://status.twitter.com/post/22461580252/twitter-site-issu'
p731
asS'photoset'
p732
(lp733
S'http://srdash.tumblr.com/post/22435934198/steampunk-ma'
p734
asS'http://medicenfrida.tumblr.com/post/2246198917'
p735
(lp736
S'http://srdash.tumblr.com/post/22435934198/steampunk-ma'
p737
asS'http://support.twitter.com'
p738
(lp739
S'http://status.twitter.com/post/22461580252/twitter-site-issu'
p740
asS'#6498cc'
p741
(lp742
S'http://status.twitter.com/post/22461580252/twitter-site-issu'
p743
asS'onclick="this.style.display=\'none\';document.getElementById(\'notes_loading_22435934198\').style.displa'
p744
(lp745
S'http://srdash.tumblr.com/post/22435934198/steampunk-ma'
p746
asS'color:#fffadc'
p747
(lp748
S'http://srdash.tumblr.com/post/22435934198/steampunk-ma'
p749
asS'padding-right'
p750
(lp751
S'http://status.twitter.com/post/22461580252/twitter-site-issu'
p752
asS'http://srdash.tumblr.com/tagged/DI'
p753
(lp754
S'http://srdash.tumblr.com/post/22435934198/steampunk-ma'
p755
asS'issue'
p756
(lp757
S'http://status.twitter.com/post/22461580252/twitter-site-issu'
p758
asS'&larr'
p759
(lp760
S'http://srdash.tumblr.com/post/22435934198/steampunk-ma'
p761
asS'100p'
p762
(lp763
S'http://status.twitter.com/post/22461580252/twitter-site-issu'
p764
asS'1p'
p765
(lp766
S'http://status.twitter.com/post/22461580252/twitter-site-issu'
p767
aS'http://srdash.tumblr.com/post/22435934198/steampunk-ma'
p768
asS'http://liveratherthanexist.tumblr.com/like'
p769
(lp770
S'http://srdash.tumblr.com/post/22435934198/steampunk-ma'
p771
asS'div.regula'
p772
(lp773
S'http://status.twitter.com/post/22461580252/twitter-site-issu'
p774
asS'user\\u2019'
p775
(lp776
S'http://status.twitter.com/post/22461580252/twitter-site-issu'
p777
aS'http://srdash.tumblr.com/post/22435934198/steampunk-ma'
p778
asS'margin:'
p779
(lp780
S'http://srdash.tumblr.com/post/22435934198/steampunk-ma'
p781
asS'http://dontcallmecliff.tumblr.com/like'
p782
(lp783
S'http://srdash.tumblr.com/post/22435934198/steampunk-ma'
p784
asS'font-family'
p785
(lp786
S'http://status.twitter.com/post/22461580252/twitter-site-issu'
p787
asS'45px'
p788
(lp789
S'http://status.twitter.com/post/22461580252/twitter-site-issu'
p790
asS'http://snowlily3.tumblr.com/like'
p791
(lp792
S'http://srdash.tumblr.com/post/22435934198/steampunk-ma'
p793
asS'g'
p794
(lp795
S'http://srdash.tumblr.com/post/22435934198/steampunk-ma'
p796
asS'.auto-heading'
p797
(lp798
S'http://srdash.tumblr.com/post/22435934198/steampunk-ma'
p799
asS'"srdash"'
p800
(lp801
S'http://srdash.tumblr.com/post/22435934198/steampunk-ma'
p802
asS"(c('Warning"
p803
(lp804
S'http://status.twitter.com/post/22461580252/twitter-site-issu'
p805
aS'http://srdash.tumblr.com/post/22435934198/steampunk-ma'
p806
asS'http://ferhoodleklaine.tumblr.com/an'
p807
(lp808
S'http://srdash.tumblr.com/post/22435934198/steampunk-ma'
p809
asS'ga.sr'
p810
(lp811
S'http://srdash.tumblr.com/post/22435934198/steampunk-ma'
p812
asS'Remingto'
p813
(lp814
S'http://srdash.tumblr.com/post/22435934198/steampunk-ma'
p815
asS'Pr'
p816
(lp817
S'http://srdash.tumblr.com/post/22435934198/steampunk-ma'
p818
asS'Quot'
p819
(lp820
S'http://status.twitter.com/post/22461580252/twitter-site-issu'
p821
asS'43px'
p822
(lp823
S'http://status.twitter.com/post/22461580252/twitter-site-issu'
p824
asS'http://mixiekins.tumblr.com/an'
p825
(lp826
S'http://srdash.tumblr.com/post/22435934198/steampunk-ma'
p827
asS'http://brynalyn.tumblr.com/like'
p828
(lp829
S'http://srdash.tumblr.com/post/22435934198/steampunk-ma'
p830
asS"notes=more_notes_link.parentNode;notes.removeChild(more_notes_link);notes.innerHTML+=notes_html;if(window.tumblrNotesInserted)tumblrNotesInserted(notes_html);}};tumblrReq.open('GET"
p831
(lp832
S'http://srdash.tumblr.com/post/22435934198/steampunk-ma'
p833
asS'engineer'
p834
(lp835
S'http://status.twitter.com/post/22461580252/twitter-site-issu'
p836
asS'23px'
p837
(lp838
S'http://status.twitter.com/post/22461580252/twitter-site-issu'
p839
asS'600px'
p840
(lp841
S'http://status.twitter.com/post/22461580252/twitter-site-issu'
p842
asS'top'
p843
(lp844
S'http://status.twitter.com/post/22461580252/twitter-site-issu'
p845
asS'border-width'
p846
(lp847
S'http://status.twitter.com/post/22461580252/twitter-site-issu'
p848
asS'#note'
p849
(lp850
S'http://srdash.tumblr.com/post/22435934198/steampunk-ma'
p851
asS'.nextpre'
p852
(lp853
S'http://srdash.tumblr.com/post/22435934198/steampunk-ma'
p854
asS'div.quot'
p855
(lp856
S'http://status.twitter.com/post/22461580252/twitter-site-issu'
p857
asS'Create'
p858
(lp859
S'http://srdash.tumblr.com/post/22435934198/steampunk-ma'
p860
asS'setInterval'
p861
(lp862
S'http://status.twitter.com/post/22461580252/twitter-site-issu'
p863
aS'http://srdash.tumblr.com/post/22435934198/steampunk-ma'
p864
asS'padding'
p865
(lp866
S'http://status.twitter.com/post/22461580252/twitter-site-issu'
p867
asS'.type-quot'
p868
(lp869
S'http://srdash.tumblr.com/post/22435934198/steampunk-ma'
p870
asS'{};bod'
p871
(lp872
S'http://srdash.tumblr.com/post/22435934198/steampunk-ma'
p873
asS'.nav'
p874
(lp875
S'http://srdash.tumblr.com/post/22435934198/steampunk-ma'
p876
asS'numTweet'
p877
(lp878
S'http://srdash.tumblr.com/post/22435934198/steampunk-ma'
p879
asS'/signup?context=webinten'
p880
(lp881
S'http://twitter.com/shar'
p882
asS'http://ianvanstaeyen.tumblr.com/like'
p883
(lp884
S'http://srdash.tumblr.com/post/22435934198/steampunk-ma'
p885
asS'Conversatio'
p886
(lp887
S'http://status.twitter.com/post/22461580252/twitter-site-issu'
p888
asS'Post'
p889
(lp890
S'http://srdash.tumblr.com/post/22435934198/steampunk-ma'
p891
asS'17p'
p892
(lp893
S'http://status.twitter.com/post/22461580252/twitter-site-issu'
p894
asS'10'
p895
(lp896
S'http://status.twitter.com/post/22461580252/twitter-site-issu'
p897
asS'Source'
p898
(lp899
S'http://srdash.tumblr.com/post/22435934198/steampunk-ma'
p900
asS'classi'
p901
(lp902
S'http://srdash.tumblr.com/post/22435934198/steampunk-ma'
p903
asS'gree'
p904
(lp905
S'http://status.twitter.com/post/22461580252/twitter-site-issu'
p906
aS'http://srdash.tumblr.com/post/22435934198/steampunk-ma'
p907
asS'http://concreteone.tumblr.com/like'
p908
(lp909
S'http://srdash.tumblr.com/post/22435934198/steampunk-ma'
p910
asS'Verdan'
p911
(lp912
S'http://status.twitter.com/post/22461580252/twitter-site-issu'
p913
asS'20p'
p914
(lp915
S'http://status.twitter.com/post/22461580252/twitter-site-issu'
p916
asS'false'
p917
(lp918
S'http://status.twitter.com/post/22461580252/twitter-site-issu'
p919
aS'http://srdash.tumblr.com/post/22435934198/steampunk-ma'
p920
asS'.invert-topba'
p921
(lp922
S'http://srdash.tumblr.com/post/22435934198/steampunk-ma'
p923
asS'margin-left'
p924
(lp925
S'http://status.twitter.com/post/22461580252/twitter-site-issu'
p926
asS'.type-photose'
p927
(lp928
S'http://srdash.tumblr.com/post/22435934198/steampunk-ma'
p929
asS'sans-serif'
p930
(lp931
S'http://status.twitter.com/post/22461580252/twitter-site-issu'
p932
aS'http://srdash.tumblr.com/post/22435934198/steampunk-ma'
p933
asS'#disqu'
p934
(lp935
S'http://srdash.tumblr.com/post/22435934198/steampunk-ma'
p936
asS'span.mediu'
p937
(lp938
S'http://status.twitter.com/post/22461580252/twitter-site-issu'
p939
asS'http://nicereminders.tumblr.com/like'
p940
(lp941
S'http://srdash.tumblr.com/post/22435934198/steampunk-ma'
p942
asS'Sans-Serif'
p943
(lp944
S'http://status.twitter.com/post/22461580252/twitter-site-issu'
p945
asS'.cop'
p946
(lp947
S'http://srdash.tumblr.com/post/22435934198/steampunk-ma'
p948
asS'liv'
p949
(lp950
S'http://srdash.tumblr.com/post/22435934198/steampunk-ma'
p951
asS'15px'
p952
(lp953
S'http://status.twitter.com/post/22461580252/twitter-site-issu'
p954
asS'font-weight'
p955
(lp956
S'http://status.twitter.com/post/22461580252/twitter-site-issu'
p957
asS'='
p958
(lp959
S'http://status.twitter.com/post/22461580252/twitter-site-issu'
p960
aS'http://srdash.tumblr.com/post/22435934198/steampunk-ma'
p961
asS'function(e'
p962
(lp963
S'http://status.twitter.com/post/22461580252/twitter-site-issu'
p964
aS'http://srdash.tumblr.com/post/22435934198/steampunk-ma'
p965
asS'added'
p966
(lp967
S'http://srdash.tumblr.com/post/22435934198/steampunk-ma'
p968
asS"continue?')"
p969
(lp970
S'http://status.twitter.com/post/22461580252/twitter-site-issu'
p971
aS'http://srdash.tumblr.com/post/22435934198/steampunk-ma'
p972
asS'normal'
p973
(lp974
S'http://status.twitter.com/post/22461580252/twitter-site-issu'
p975
asS'M'
p976
(lp977
S'http://srdash.tumblr.com/post/22435934198/steampunk-ma'
p978
asS'http://befriande.tumblr.com/like'
p979
(lp980
S'http://srdash.tumblr.com/post/22435934198/steampunk-ma'
p981
asS'isn&#8217;'
p982
(lp983
S'http://srdash.tumblr.com/post/22435934198/steampunk-ma'
p984
asS'div.captio'
p985
(lp986
S'http://status.twitter.com/post/22461580252/twitter-site-issu'
p987
asS'Thi'
p988
(lp989
S'http://srdash.tumblr.com/post/22435934198/steampunk-ma'
p990
asS'white-space'
p991
(lp992
S'http://status.twitter.com/post/22461580252/twitter-site-issu'
p993
asS'li.od'
p994
(lp995
S'http://status.twitter.com/post/22461580252/twitter-site-issu'
p996
asS'Pos'
p997
(lp998
S'http://status.twitter.com/post/22461580252/twitter-site-issu'
p999
asS'\\u201cTumbl'
p1000
(lp1001
S'http://status.twitter.com/post/22461580252/twitter-site-issu'
p1002
aS'http://srdash.tumblr.com/post/22435934198/steampunk-ma'
p1003
asS'http://twitter.comservice'
p1004
(lp1005
S'http://status.twitter.com/post/22461580252/twitter-site-issu'
p1006
asS'left'
p1007
(lp1008
S'http://status.twitter.com/post/22461580252/twitter-site-issu'
p1009
asS'}'
p1010
(lp1011
S'http://status.twitter.com/post/22461580252/twitter-site-issu'
p1012
aS'http://srdash.tumblr.com/post/22435934198/steampunk-ma'
p1013
asS'Web'
p1014
(lp1015
S'http://srdash.tumblr.com/post/22435934198/steampunk-ma'
p1016
asS'loadin'
p1017
(lp1018
S'http://srdash.tumblr.com/post/22435934198/steampunk-ma'
p1019
asS'12p'
p1020
(lp1021
S'http://status.twitter.com/post/22461580252/twitter-site-issu'
p1022
asS'.inne'
p1023
(lp1024
S'http://srdash.tumblr.com/post/22435934198/steampunk-ma'
p1025
asS'#444'
p1026
(lp1027
S'http://status.twitter.com/post/22461580252/twitter-site-issu'
p1028
asS'font'
p1029
(lp1030
S'http://status.twitter.com/post/22461580252/twitter-site-issu'
p1031
asS'30px'
p1032
(lp1033
S'http://status.twitter.com/post/22461580252/twitter-site-issu'
p1034
asS'40px'
p1035
(lp1036
S'http://status.twitter.com/post/22461580252/twitter-site-issu'
p1037
asS'Update'
p1038
(lp1039
S'http://status.twitter.com/post/22461580252/twitter-site-issu'
p1040
asS'5px'
p1041
(lp1042
S'http://status.twitter.com/post/22461580252/twitter-site-issu'
p1043
asS'border-left'
p1044
(lp1045
S'http://status.twitter.com/post/22461580252/twitter-site-issu'
p1046
asS'http://17yearsinthecloset.tumblr.com/post/22460182731like'
p1047
(lp1048
S'http://srdash.tumblr.com/post/22435934198/steampunk-ma'
p1049
asS'workin'
p1050
(lp1051
S'http://status.twitter.com/post/22461580252/twitter-site-issu'
p1052
asS'div#descriptio'
p1053
(lp1054
S'http://status.twitter.com/post/22461580252/twitter-site-issu'
p1055
asS"document.getElementsByTagName('script')[0]"
p1056
(lp1057
S'http://srdash.tumblr.com/post/22435934198/steampunk-ma'
p1058
asS'border-bottom'
p1059
(lp1060
S'http://status.twitter.com/post/22461580252/twitter-site-issu'
p1061
asS'http://justbeingseriouslysocial.com/'
p1062
(lp1063
S'http://srdash.tumblr.com/post/22435934198/steampunk-ma'
p1064
asS'themeColo'
p1065
(lp1066
S'http://srdash.tumblr.com/post/22435934198/steampunk-ma'
p1067
asS'Apple&#8217;'
p1068
(lp1069
S'http://srdash.tumblr.com/post/22435934198/steampunk-ma'
p1070
asS'http://carelesswhispers.tumblr.com'
p1071
(lp1072
S'http://srdash.tumblr.com/post/22435934198/steampunk-ma'
p1073
asS'blog.\\x0a\\x0aAr'
p1074
(lp1075
S'http://status.twitter.com/post/22461580252/twitter-site-issu'
p1076
aS'http://srdash.tumblr.com/post/22435934198/steampunk-ma'
p1077
asS'http://dvice.com/archives/2011/07/steampunk-mac-h.ph'
p1078
(lp1079
S'http://srdash.tumblr.com/post/22435934198/steampunk-ma'
p1080
asS'#bbd5f1'
p1081
(lp1082
S'http://status.twitter.com/post/22461580252/twitter-site-issu'
p1083
asS'h'
p1084
(lp1085
S'http://status.twitter.com/post/22461580252/twitter-site-issu'
p1086
aS'http://srdash.tumblr.com/post/22435934198/steampunk-ma'
p1087
asS'.ico'
p1088
(lp1089
S'http://srdash.tumblr.com/post/22435934198/steampunk-ma'
p1090
asS'.speake'
p1091
(lp1092
S'http://srdash.tumblr.com/post/22435934198/steampunk-ma'
p1093
asS"'UA-31450068-1'])"
p1094
(lp1095
S'http://srdash.tumblr.com/post/22435934198/steampunk-ma'
p1096
asS'line-height'
p1097
(lp1098
S'http://status.twitter.com/post/22461580252/twitter-site-issu'
p1099
asS'iPad'
p1100
(lp1101
S'http://srdash.tumblr.com/post/22435934198/steampunk-ma'
p1102
asS"more_notes_link=document.getElementById('more_notes_22435934198');va"
p1103
(lp1104
S'http://srdash.tumblr.com/post/22435934198/steampunk-ma'
p1105
asS'&rarr'
p1106
(lp1107
S'http://srdash.tumblr.com/post/22435934198/steampunk-ma'
p1108
asS'span.descriptio'
p1109
(lp1110
S'http://status.twitter.com/post/22461580252/twitter-site-issu'
p1111
asS"'http://www'"
p1112
(lp1113
S'http://srdash.tumblr.com/post/22435934198/steampunk-ma'
p1114
asS'100px'
p1115
(lp1116
S'http://status.twitter.com/post/22461580252/twitter-site-issu'
p1117
asS'a:hove'
p1118
(lp1119
S'http://status.twitter.com/post/22461580252/twitter-site-issu'
p1120
aS'http://srdash.tumblr.com/post/22435934198/steampunk-ma'
p1121
asS'relative'
p1122
(lp1123
S'http://status.twitter.com/post/22461580252/twitter-site-issu'
p1124
asS'identificatio'
p1125
(lp1126
S'http://status.twitter.com/post/22461580252/twitter-site-issu'
p1127
aS'http://srdash.tumblr.com/post/22435934198/steampunk-ma'
p1128
asS'keyboar'
p1129
(lp1130
S'http://srdash.tumblr.com/post/22435934198/steampunk-ma'
p1131
asS'div#foote'
p1132
(lp1133
S'http://status.twitter.com/post/22461580252/twitter-site-issu'
p1134
asS'statu'
p1135
(lp1136
S'http://status.twitter.com/post/22461580252/twitter-site-issu'
p1137
asS'http://3fromdesire.tumblr.com/like'
p1138
(lp1139
S'http://srdash.tumblr.com/post/22435934198/steampunk-ma'
p1140
asS'http://circuitzombie.tumblr.com'
p1141
(lp1142
S'http://srdash.tumblr.com/post/22435934198/steampunk-ma'
p1143
asS'http://romanrafael.tumblr.com'
p1144
(lp1145
S'http://srdash.tumblr.com/post/22435934198/steampunk-ma'
p1146
asS'.type-cha'
p1147
(lp1148
S'http://srdash.tumblr.com/post/22435934198/steampunk-ma'
p1149
asS'http://fuckingtesla.tumblr.com/like'
p1150
(lp1151
S'http://srdash.tumblr.com/post/22435934198/steampunk-ma'
p1152
asS'0)'
p1153
(lp1154
S'http://status.twitter.com/post/22461580252/twitter-site-issu'
p1155
aS'http://srdash.tumblr.com/post/22435934198/steampunk-ma'
p1156
asS'searchValu'
p1157
(lp1158
S'http://srdash.tumblr.com/post/22435934198/steampunk-ma'
p1159
asS'beautifu'
p1160
(lp1161
S'http://srdash.tumblr.com/post/22435934198/steampunk-ma'
p1162
asS'"#f55b2c"'
p1163
(lp1164
S'http://srdash.tumblr.com/post/22435934198/steampunk-ma'
p1165
asS'we'
p1166
(lp1167
S'http://status.twitter.com/post/22461580252/twitter-site-issu'
p1168
aS'http://srdash.tumblr.com/post/22435934198/steampunk-ma'
p1169
asS'soli'
p1170
(lp1171
S'http://status.twitter.com/post/22461580252/twitter-site-issu'
p1172
asS'outfit'
p1173
(lp1174
S'http://srdash.tumblr.com/post/22435934198/steampunk-ma'
p1175
asS'S'
p1176
(lp1177
S'http://srdash.tumblr.com/post/22435934198/steampunk-ma'
p1178
asS'tweets&hellip'
p1179
(lp1180
S'http://srdash.tumblr.com/post/22435934198/steampunk-ma'
p1181
asS"'password'"
p1182
(lp1183
S'http://status.twitter.com/post/22461580252/twitter-site-issu'
p1184
aS'http://srdash.tumblr.com/post/22435934198/steampunk-ma'
p1185
asS'http://shredyourfuckingfaceoff.tumblr.com/like'
p1186
(lp1187
S'http://srdash.tumblr.com/post/22435934198/steampunk-ma'
p1188
asS"'Trebuche"
p1189
(lp1190
S'http://status.twitter.com/post/22461580252/twitter-site-issu'
p1191
asS'experiencin'
p1192
(lp1193
S'http://status.twitter.com/post/22461580252/twitter-site-issu'
p1194
asS'0p'
p1195
(lp1196
S'http://status.twitter.com/post/22461580252/twitter-site-issu'
p1197
asS'class="more_notes_link'
p1198
(lp1199
S'http://srdash.tumblr.com/post/22435934198/steampunk-ma'
p1200
asS'false)'
p1201
(lp1202
S'http://status.twitter.com/post/22461580252/twitter-site-issu'
p1203
aS'http://srdash.tumblr.com/post/22435934198/steampunk-ma'
p1204
asS'#bbb'
p1205
(lp1206
S'http://status.twitter.com/post/22461580252/twitter-site-issu'
p1207
asS'-2px'
p1208
(lp1209
S'http://status.twitter.com/post/22461580252/twitter-site-issu'
p1210
asS'http://mixiekins.tumblr.com/post/22462974247like'
p1211
(lp1212
S'http://srdash.tumblr.com/post/22435934198/steampunk-ma'
p1213
asS'(independently'
p1214
(lp1215
S'http://srdash.tumblr.com/post/22435934198/steampunk-ma'
p1216
asS'unles'
p1217
(lp1218
S'http://status.twitter.com/post/22461580252/twitter-site-issu'
p1219
aS'http://srdash.tumblr.com/post/22435934198/steampunk-ma'
p1220
asS'&bull'
p1221
(lp1222
S'http://srdash.tumblr.com/post/22435934198/steampunk-ma'
p1223
asS'#99cc33'
p1224
(lp1225
S'http://status.twitter.com/post/22461580252/twitter-site-issu'
p1226
asS'color'
p1227
(lp1228
S'http://status.twitter.com/post/22461580252/twitter-site-issu'
p1229
asS'.quote-tex'
p1230
(lp1231
S'http://srdash.tumblr.com/post/22435934198/steampunk-ma'
p1232
asS'border-left-color:#f55b2c'
p1233
(lp1234
S'http://srdash.tumblr.com/post/22435934198/steampunk-ma'
p1235
asS'height'
p1236
(lp1237
S'http://status.twitter.com/post/22461580252/twitter-site-issu'
p1238
asS'RandomArchiveRSSAs'
p1239
(lp1240
S'http://srdash.tumblr.com/post/22435934198/steampunk-ma'
p1241
asS'{font-family:Helvetic'
p1242
(lp1243
S'http://srdash.tumblr.com/post/22435934198/steampunk-ma'
p1244
asS'http://wolflog.tumblr.com/like'
p1245
(lp1246
S'http://srdash.tumblr.com/post/22435934198/steampunk-ma'
p1247
asS'Tumbl'
p1248
(lp1249
S'http://status.twitter.com/post/22461580252/twitter-site-issu'
p1250
aS'http://srdash.tumblr.com/post/22435934198/steampunk-ma'
p1251
asS'&rarr;http://topherchris.com/post/22451801076/im-proud-to-annouce-the-launch-of-shit-panelist'
p1252
(lp1253
S'http://srdash.tumblr.com/post/22435934198/steampunk-ma'
p1254
asS'e.targe'
p1255
(lp1256
S'http://status.twitter.com/post/22461580252/twitter-site-issu'
p1257
aS'http://srdash.tumblr.com/post/22435934198/steampunk-ma'
p1258
asS'color:#131313'
p1259
(lp1260
S'http://srdash.tumblr.com/post/22435934198/steampunk-ma'
p1261
asS'http://lucyquinnfabray-berry.tumblr.com'
p1262
(lp1263
S'http://srdash.tumblr.com/post/22435934198/steampunk-ma'
p1264
asS'div.conversatio'
p1265
(lp1266
S'http://status.twitter.com/post/22461580252/twitter-site-issu'
p1267
asS'isPermalin'
p1268
(lp1269
S'http://srdash.tumblr.com/post/22435934198/steampunk-ma'
p1270
asS'#foote'
p1271
(lp1272
S'http://srdash.tumblr.com/post/22435934198/steampunk-ma'
p1273
asS'z-index'
p1274
(lp1275
S'http://status.twitter.com/post/22461580252/twitter-site-issu'
p1276
asS'Vide'
p1277
(lp1278
S'http://status.twitter.com/post/22461580252/twitter-site-issu'
p1279
asS'parseInt(4)'
p1280
(lp1281
S'http://srdash.tumblr.com/post/22435934198/steampunk-ma'
p1282
asS'16px'
p1283
(lp1284
S'http://status.twitter.com/post/22461580252/twitter-site-issu'
p1285
asS'http://circuitzombie.tumblr.com/like'
p1286
(lp1287
S'http://srdash.tumblr.com/post/22435934198/steampunk-ma'
p1288
asS'margin'
p1289
(lp1290
S'http://status.twitter.com/post/22461580252/twitter-site-issu'
p1291
asS'50p'
p1292
(lp1293
S'http://status.twitter.com/post/22461580252/twitter-site-issu'
p1294
asS'currentl'
p1295
(lp1296
S'http://status.twitter.com/post/22461580252/twitter-site-issu'
p1297
aS'http://srdash.tumblr.com/post/22435934198/steampunk-ma'
p1298
asS'letter-spacing'
p1299
(lp1300
S'http://status.twitter.com/post/22461580252/twitter-site-issu'
p1301
asS'http://solar-flares143.tumblr.com'
p1302
(lp1303
S'http://srdash.tumblr.com/post/22435934198/steampunk-ma'
p1304
asS'Aria'
p1305
(lp1306
S'http://srdash.tumblr.com/post/22435934198/steampunk-ma'
p1307
asS'-260px'
p1308
(lp1309
S'http://status.twitter.com/post/22461580252/twitter-site-issu'
p1310
asS'.inver'
p1311
(lp1312
S'http://srdash.tumblr.com/post/22435934198/steampunk-ma'
p1313
asS'im'
p1314
(lp1315
S'http://status.twitter.com/post/22461580252/twitter-site-issu'
p1316
asS'if(window.tumblrNotesLoaded)if(tumblrNotesLoaded(notes_html)==false)return;va'
p1317
(lp1318
S'http://srdash.tumblr.com/post/22435934198/steampunk-ma'
p1319
asS'http://malarkeyo.tumblr.com'
p1320
(lp1321
S'http://srdash.tumblr.com/post/22435934198/steampunk-ma'
p1322
asS'div.quote_tex'
p1323
(lp1324
S'http://status.twitter.com/post/22461580252/twitter-site-issu'
p1325
asS'coole'
p1326
(lp1327
S'http://srdash.tumblr.com/post/22435934198/steampunk-ma'
p1328
asS'contentWidt'
p1329
(lp1330
S'http://srdash.tumblr.com/post/22435934198/steampunk-ma'
p1331
asS'font-family:Helvetic'
p1332
(lp1333
S'http://srdash.tumblr.com/post/22435934198/steampunk-ma'
p1334
asS'document'
p1335
(lp1336
S'http://status.twitter.com/post/22461580252/twitter-site-issu'
p1337
aS'http://srdash.tumblr.com/post/22435934198/steampunk-ma'
p1338
asS'http://omgtalkingllama.tumblr.com/like'
p1339
(lp1340
S'http://srdash.tumblr.com/post/22435934198/steampunk-ma'
p1341
asS"'https://ssl"
p1342
(lp1343
S'http://srdash.tumblr.com/post/22435934198/steampunk-ma'
p1344
asS'Regula'
p1345
(lp1346
S'http://status.twitter.com/post/22461580252/twitter-site-issu'
p1347
asS'""'
p1348
(lp1349
S'http://status.twitter.com/post/22461580252/twitter-site-issu'
p1350
aS'http://srdash.tumblr.com/post/22435934198/steampunk-ma'
p1351
asS'user'
p1352
(lp1353
S'http://status.twitter.com/post/22461580252/twitter-site-issu'
p1354
asS'p:first-chil'
p1355
(lp1356
S'http://srdash.tumblr.com/post/22435934198/steampunk-ma'
p1357
asS'center'
p1358
(lp1359
S'http://status.twitter.com/post/22461580252/twitter-site-issu'
p1360
asS'span.shor'
p1361
(lp1362
S'http://status.twitter.com/post/22461580252/twitter-site-issu'
p1363
asS'Di'
p1364
(lp1365
S'http://srdash.tumblr.com/post/22435934198/steampunk-ma'
p1366
asS'Som'
p1367
(lp1368
S'http://status.twitter.com/post/22461580252/twitter-site-issu'
p1369
asS'#footer-en'
p1370
(lp1371
S'http://srdash.tumblr.com/post/22435934198/steampunk-ma'
p1372
asS'Steampun'
p1373
(lp1374
S'http://srdash.tumblr.com/post/22435934198/steampunk-ma'
p1375
asS'margin-top'
p1376
(lp1377
S'http://status.twitter.com/post/22461580252/twitter-site-issu'
p1378
asS'position'
p1379
(lp1380
S'http://status.twitter.com/post/22461580252/twitter-site-issu'
p1381
asS'.photo-btn'
p1382
(lp1383
S'http://srdash.tumblr.com/post/22435934198/steampunk-ma'
p1384
asS'214'
p1385
(lp1386
S'http://srdash.tumblr.com/post/22435934198/steampunk-ma'
p1387
asS'http://fake-genius.tumblr.com'
p1388
(lp1389
S'http://srdash.tumblr.com/post/22435934198/steampunk-ma'
p1390
asS'margin-bottom'
p1391
(lp1392
S'http://status.twitter.com/post/22461580252/twitter-site-issu'
p1393
asS'underline'
p1394
(lp1395
S'http://status.twitter.com/post/22461580252/twitter-site-issu'
p1396
asS'}();<!--soumyaranjan.das'
p1397
(lp1398
S'http://srdash.tumblr.com/post/22435934198/steampunk-ma'
p1399
asS'http://abcdefgay.tumblr.com/like'
p1400
(lp1401
S'http://srdash.tumblr.com/post/22435934198/steampunk-ma'
p1402
asS'collapseNote'
p1403
(lp1404
S'http://srdash.tumblr.com/post/22435934198/steampunk-ma'
p1405
asS'5t'
p1406
(lp1407
S'http://status.twitter.com/post/22461580252/twitter-site-issu'
p1408
asS'5p'
p1409
(lp1410
S'http://status.twitter.com/post/22461580252/twitter-site-issu'
p1411
asS'strong:first-chil'
p1412
(lp1413
S'http://srdash.tumblr.com/post/22435934198/steampunk-ma'
p1414
asS'a.lin'
p1415
(lp1416
S'http://status.twitter.com/post/22461580252/twitter-site-issu'
p1417
asS'160px'
p1418
(lp1419
S'http://status.twitter.com/post/22461580252/twitter-site-issu'
p1420
asS'div.pos'
p1421
(lp1422
S'http://status.twitter.com/post/22461580252/twitter-site-issu'
p1423
asS'!function('
p1424
(lp1425
S'http://status.twitter.com/post/22461580252/twitter-site-issu'
p1426
aS'http://srdash.tumblr.com/post/22435934198/steampunk-ma'
p1427
asS'Grande'
p1428
(lp1429
S'http://status.twitter.com/post/22461580252/twitter-site-issu'
p1430
asS'http://bit.ly/inpraiseoflife'
p1431
(lp1432
S'http://srdash.tumblr.com/post/22435934198/steampunk-ma'
p1433
asS'http://medicenfrida.tumblr.com/an'
p1434
(lp1435
S'http://srdash.tumblr.com/post/22435934198/steampunk-ma'
p1436
asS'"Search"'
p1437
(lp1438
S'http://srdash.tumblr.com/post/22435934198/steampunk-ma'
p1439
asS'text-align'
p1440
(lp1441
S'http://status.twitter.com/post/22461580252/twitter-site-issu'
p1442
asS'35px'
p1443
(lp1444
S'http://status.twitter.com/post/22461580252/twitter-site-issu'
p1445
asS'font-weight:bold'
p1446
(lp1447
S'http://srdash.tumblr.com/post/22435934198/steampunk-ma'
p1448
asS'http://fake-genius.tumblr.com/like'
p1449
(lp1450
S'http://srdash.tumblr.com/post/22435934198/steampunk-ma'
p1451
asS'Thes'
p1452
(lp1453
S'http://srdash.tumblr.com/post/22435934198/steampunk-ma'
p1454
asS'.user-questio'
p1455
(lp1456
S'http://srdash.tumblr.com/post/22435934198/steampunk-ma'
p1457
asS'http://lrds-1354.tumblr.com/like'
p1458
(lp1459
S'http://srdash.tumblr.com/post/22435934198/steampunk-ma'
p1460
asS'false;">Sho'
p1461
(lp1462
S'http://srdash.tumblr.com/post/22435934198/steampunk-ma'
p1463
asS'window.event'
p1464
(lp1465
S'http://status.twitter.com/post/22461580252/twitter-site-issu'
p1466
aS'http://srdash.tumblr.com/post/22435934198/steampunk-ma'
p1467
asS'Inc.\\u201'
p1468
(lp1469
S'http://status.twitter.com/post/22461580252/twitter-site-issu'
p1470
aS'http://srdash.tumblr.com/post/22435934198/steampunk-ma'
p1471
asS'#c00'
p1472
(lp1473
S'http://status.twitter.com/post/22461580252/twitter-site-issu'
p1474
asS'ligh'
p1475
(lp1476
S'http://srdash.tumblr.com/post/22435934198/steampunk-ma'
p1477
asS'right'
p1478
(lp1479
S'http://status.twitter.com/post/22461580252/twitter-site-issu'
p1480
asS'12px'
p1481
(lp1482
S'http://status.twitter.com/post/22461580252/twitter-site-issu'
p1483
asS'30p'
p1484
(lp1485
S'http://status.twitter.com/post/22461580252/twitter-site-issu'
p1486
asS'/archiv'
p1487
(lp1488
S'http://status.twitter.com/post/22461580252/twitter-site-issu'
p1489
asS'Elsewher'
p1490
(lp1491
S'http://srdash.tumblr.com/post/22435934198/steampunk-ma'
p1492
asS'/rs'
p1493
(lp1494
S'http://status.twitter.com/post/22461580252/twitter-site-issu'
p1495
asS'div.dat'
p1496
(lp1497
S'http://status.twitter.com/post/22461580252/twitter-site-issu'
p1498
asS'border-right-color:#f55b2c'
p1499
(lp1500
S'http://srdash.tumblr.com/post/22435934198/steampunk-ma'
p1501
asS'Neu'
p1502
(lp1503
S'http://srdash.tumblr.com/post/22435934198/steampunk-ma'
p1504
asS'bar.\\x0a\\x0aSpammer'
p1505
(lp1506
S'http://status.twitter.com/post/22461580252/twitter-site-issu'
p1507
aS'http://srdash.tumblr.com/post/22435934198/steampunk-ma'
p1508
asS'Notes/Hid'
p1509
(lp1510
S'http://srdash.tumblr.com/post/22435934198/steampunk-ma'
p1511
asS'iMac'
p1512
(lp1513
S'http://srdash.tumblr.com/post/22435934198/steampunk-ma'
p1514
asS'confirm'
p1515
(lp1516
S'http://status.twitter.com/post/22461580252/twitter-site-issu'
p1517
aS'http://srdash.tumblr.com/post/22435934198/steampunk-ma'
p1518
asS'/'
p1519
(lp1520
S'http://status.twitter.com/post/22461580252/twitter-site-issu'
p1521
asS'passion'
p1522
(lp1523
S'http://srdash.tumblr.com/post/22435934198/steampunk-ma'
p1524
asS'ga.asyn'
p1525
(lp1526
S'http://srdash.tumblr.com/post/22435934198/steampunk-ma'
p1527
asS'400px'
p1528
(lp1529
S'http://status.twitter.com/post/22461580252/twitter-site-issu'
p1530
asS'background-color'
p1531
(lp1532
S'http://status.twitter.com/post/22461580252/twitter-site-issu'
p1533
asS'stea'
p1534
(lp1535
S'http://status.twitter.com/post/22461580252/twitter-site-issu'
p1536
aS'http://srdash.tumblr.com/post/22435934198/steampunk-ma'
p1537
asS'bold'
p1538
(lp1539
S'http://status.twitter.com/post/22461580252/twitter-site-issu'
p1540
asS'Bor'
p1541
(lp1542
S'http://srdash.tumblr.com/post/22435934198/steampunk-ma'
p1543
asS'10px'
p1544
(lp1545
S'http://status.twitter.com/post/22461580252/twitter-site-issu'
p1546
asS'Bol'
p1547
(lp1548
S'http://status.twitter.com/post/22461580252/twitter-site-issu'
p1549
asS'0px'
p1550
(lp1551
S'http://status.twitter.com/post/22461580252/twitter-site-issu'
p1552
asS'230px'
p1553
(lp1554
S'http://status.twitter.com/post/22461580252/twitter-site-issu'
p1555
asS'raise'
p1556
(lp1557
S'http://srdash.tumblr.com/post/22435934198/steampunk-ma'
p1558
asS'XMLHttpRequest();els'
p1559
(lp1560
S'http://srdash.tumblr.com/post/22435934198/steampunk-ma'
p1561
asS'img.permalin'
p1562
(lp1563
S'http://status.twitter.com/post/22461580252/twitter-site-issu'
p1564
asS'#bf4402'
p1565
(lp1566
S'http://srdash.tumblr.com/post/22435934198/steampunk-ma'
p1567
asS'8px'
p1568
(lp1569
S'http://status.twitter.com/post/22461580252/twitter-site-issu'
p1570
asS'.pinne'
p1571
(lp1572
S'http://srdash.tumblr.com/post/22435934198/steampunk-ma'
p1573
asS'passwor'
p1574
(lp1575
S'http://status.twitter.com/post/22461580252/twitter-site-issu'
p1576
aS'http://srdash.tumblr.com/post/22435934198/steampunk-ma'
p1577
asS'document.location.protoco'
p1578
(lp1579
S'http://srdash.tumblr.com/post/22435934198/steampunk-ma'
p1580
asS'float'
p1581
(lp1582
S'http://status.twitter.com/post/22461580252/twitter-site-issu'
p1583
asS'[]'
p1584
(lp1585
S'http://srdash.tumblr.com/post/22435934198/steampunk-ma'
p1586
asS'#ccc'
p1587
(lp1588
S'http://status.twitter.com/post/22461580252/twitter-site-issu'
p1589
asS'#00c'
p1590
(lp1591
S'http://status.twitter.com/post/22461580252/twitter-site-issu'
p1592
asS'aestheti'
p1593
(lp1594
S'http://srdash.tumblr.com/post/22435934198/steampunk-ma'
p1595
asS'MacBook'
p1596
(lp1597
S'http://srdash.tumblr.com/post/22435934198/steampunk-ma'
p1598
asS'wan'
p1599
(lp1600
S'http://status.twitter.com/post/22461580252/twitter-site-issu'
p1601
aS'http://srdash.tumblr.com/post/22435934198/steampunk-ma'
p1602
asS'background-color:#fbfbfb'
p1603
(lp1604
S'http://srdash.tumblr.com/post/22435934198/steampunk-ma'
p1605
asS'Norma'
p1606
(lp1607
S'http://status.twitter.com/post/22461580252/twitter-site-issu'
p1608
asS'*'
p1609
(lp1610
S'http://status.twitter.com/post/22461580252/twitter-site-issu'
p1611
asS"'inline';if(window.ActiveXObject)va"
p1612
(lp1613
S'http://srdash.tumblr.com/post/22435934198/steampunk-ma'
p1614
asS'width'
p1615
(lp1616
S'http://status.twitter.com/post/22461580252/twitter-site-issu'
p1617
asS'italic'
p1618
(lp1619
S'http://status.twitter.com/post/22461580252/twitter-site-issu'
p1620
asS'uppercase'
p1621
(lp1622
S'http://status.twitter.com/post/22461580252/twitter-site-issu'
p1623
asS'http://blog.twitter.com'
p1624
(lp1625
S'http://status.twitter.com/post/22461580252/twitter-site-issu'
p1626
asS'#000'
p1627
(lp1628
S'http://status.twitter.com/post/22461580252/twitter-site-issu'
p1629
asS'form'
p1630
(lp1631
S'http://status.twitter.com/post/22461580252/twitter-site-issu'
p1632
aS'http://srdash.tumblr.com/post/22435934198/steampunk-ma'
p1633
asS'13px'
p1634
(lp1635
S'http://status.twitter.com/post/22461580252/twitter-site-issu'
p1636
asS'.audio-met'
p1637
(lp1638
S'http://srdash.tumblr.com/post/22435934198/steampunk-ma'
p1639
asS'#f4f4f4'
p1640
(lp1641
S'http://status.twitter.com/post/22461580252/twitter-site-issu'
p1642
asS'114-year-ol'
p1643
(lp1644
S'http://srdash.tumblr.com/post/22435934198/steampunk-ma'
p1645
asS'}();Twitte'
p1646
(lp1647
S'http://status.twitter.com/post/22461580252/twitter-site-issu'
p1648
asS'serif'
p1649
(lp1650
S'http://status.twitter.com/post/22461580252/twitter-site-issu'
p1651
aS'http://srdash.tumblr.com/post/22435934198/steampunk-ma'
p1652
asS'text-shadow:1p'
p1653
(lp1654
S'http://srdash.tumblr.com/post/22435934198/steampunk-ma'
p1655
asS'overflow'
p1656
(lp1657
S'http://status.twitter.com/post/22461580252/twitter-site-issu'
p1658
asS'true'
p1659
(lp1660
S'http://srdash.tumblr.com/post/22435934198/steampunk-ma'
p1661
asS'resolvin'
p1662
(lp1663
S'http://status.twitter.com/post/22461580252/twitter-site-issu'
p1664
asS'Macintos'
p1665
(lp1666
S'http://srdash.tumblr.com/post/22435934198/steampunk-ma'
p1667
asS'.type-answe'
p1668
(lp1669
S'http://srdash.tumblr.com/post/22435934198/steampunk-ma'
p1670
asS'http://status.twitter.com/post/22461580252/twitter-site-issue3'
p1671
(lp1672
S'http://status.twitter.com/post/22461580252/twitter-site-issu'
p1673
asS'Relate'
p1674
(lp1675
S'http://status.twitter.com/post/22461580252/twitter-site-issu'
p1676
asS'.b'
p1677
(lp1678
S'http://srdash.tumblr.com/post/22435934198/steampunk-ma'
p1679
asS'us'
p1680
(lp1681
S'http://status.twitter.com/post/22461580252/twitter-site-issu'
p1682
aS'http://srdash.tumblr.com/post/22435934198/steampunk-ma'
p1683
asS'background-color:#e6ebea'
p1684
(lp1685
S'http://srdash.tumblr.com/post/22435934198/steampunk-ma'
p1686
asS'20px'
p1687
(lp1688
S'http://status.twitter.com/post/22461580252/twitter-site-issu'
p1689
asS'.t'
p1690
(lp1691
S'http://srdash.tumblr.com/post/22435934198/steampunk-ma'
p1692
asS'display'
p1693
(lp1694
S'http://status.twitter.com/post/22461580252/twitter-site-issu'
p1695
asS'ad'
p1696
(lp1697
S'http://srdash.tumblr.com/post/22435934198/steampunk-ma'
p1698
asS'ag'
p1699
(lp1700
S'http://status.twitter.com/post/22461580252/twitter-site-issu'
p1701
asS'Sit'
p1702
(lp1703
S'http://status.twitter.com/post/22461580252/twitter-site-issu'
p1704
asS'as'
p1705
(lp1706
S'http://status.twitter.com/post/22461580252/twitter-site-issu'
p1707
aS'http://srdash.tumblr.com/post/22435934198/steampunk-ma'
p1708
asS'Sig'
p1709
(lp1710
S'http://twitter.com/shar'
p1711
asS'.fixe'
p1712
(lp1713
S'http://srdash.tumblr.com/post/22435934198/steampunk-ma'
p1714
asS'27px'
p1715
(lp1716
S'http://status.twitter.com/post/22461580252/twitter-site-issu'
p1717
asS'color:#f55b2c'
p1718
(lp1719
S'http://srdash.tumblr.com/post/22435934198/steampunk-ma'
p1720
asS'document.getElementById(\'tumblr_controls\').allowTransparency=true;_qoptions={qacct:"p-19UtqE8ngoZbM"}'
p1721
(lp1722
S'http://status.twitter.com/post/22461580252/twitter-site-issu'
p1723
asS'ne'
p1724
(lp1725
S'http://srdash.tumblr.com/post/22435934198/steampunk-ma'
p1726
asS'14px'
p1727
(lp1728
S'http://status.twitter.com/post/22461580252/twitter-site-issu'
p1729
asS'browser.\\x0a\\x0aYo'
p1730
(lp1731
S'http://status.twitter.com/post/22461580252/twitter-site-issu'
p1732
aS'http://srdash.tumblr.com/post/22435934198/steampunk-ma'
p1733
asS'http://ayteh.tumblr.com/like'
p1734
(lp1735
S'http://srdash.tumblr.com/post/22435934198/steampunk-ma'
p1736
asS'showTweet'
p1737
(lp1738
S'http://srdash.tumblr.com/post/22435934198/steampunk-ma'
p1739
asS'Bhubaneswa'
p1740
(lp1741
S'http://srdash.tumblr.com/post/22435934198/steampunk-ma'
p1742
asS'{}'
p1743
(lp1744
S'http://status.twitter.com/post/22461580252/twitter-site-issu'
p1745
aS'http://srdash.tumblr.com/post/22435934198/steampunk-ma'
p1746
asS"ActiveXObject('Microsoft.XMLHTTP');els"
p1747
(lp1748
S'http://srdash.tumblr.com/post/22435934198/steampunk-ma'
p1749
asS'Abou'
p1750
(lp1751
S'http://srdash.tumblr.com/post/22435934198/steampunk-ma'
p1752
asS'.actio'
p1753
(lp1754
S'http://srdash.tumblr.com/post/22435934198/steampunk-ma'
p1755
asS'http://delilahb.tumblr.com/like'
p1756
(lp1757
S'http://srdash.tumblr.com/post/22435934198/steampunk-ma'
p1758
asS'http://apiwiki.twitter.com'
p1759
(lp1760
S'http://status.twitter.com/post/22461580252/twitter-site-issu'
p1761
asS'showLike'
p1762
(lp1763
S'http://srdash.tumblr.com/post/22435934198/steampunk-ma'
p1764
asS'bottom'
p1765
(lp1766
S'http://status.twitter.com/post/22461580252/twitter-site-issu'
p1767
asS'(function('
p1768
(lp1769
S'http://srdash.tumblr.com/post/22435934198/steampunk-ma'
p1770
asS'4p'
p1771
(lp1772
S'http://status.twitter.com/post/22461580252/twitter-site-issu'
p1773
asS'An'
p1774
(lp1775
S'http://srdash.tumblr.com/post/22435934198/steampunk-ma'
p1776
asS'Twitte'
p1777
(lp1778
S'http://status.twitter.com/post/22461580252/twitter-site-issu'
p1779
aS'http://srdash.tumblr.com/post/22435934198/steampunk-ma'
p1780
asS'u'
p1781
(lp1782
S'http://status.twitter.com/post/22461580252/twitter-site-issu'
p1783
asS"_gaq.push(['_trackPageview'])"
p1784
(lp1785
S'http://srdash.tumblr.com/post/22435934198/steampunk-ma'
p1786
asS'http://mixiekins.tumblr.com/like'
p1787
(lp1788
S'http://srdash.tumblr.com/post/22435934198/steampunk-ma'
p1789
asS'function('
p1790
(lp1791
S'http://status.twitter.com/post/22461580252/twitter-site-issu'
p1792
aS'http://srdash.tumblr.com/post/22435934198/steampunk-ma'
p1793
asS'.page'
p1794
(lp1795
S'http://srdash.tumblr.com/post/22435934198/steampunk-ma'
p1796
as.(dp0
.